target datalayout = "e-m:e-p270:32:32-p271:32:32-p272:64:64-i64:64-i128:128-f80:128-n8:16:32:64-S128"
target triple = "x86_64-pc-linux-gnu"

%struct.Int = type { %struct.Int128_, i32 }
%struct.Int128_ = type { i64, i64 }
%struct.ExprConst = type { i16, %union.anon }
%union.anon = type { %struct.Int }
%struct.Float = type { double, i32 }
%struct.Decl_ = type { ptr, ptr, %union.SourceSpan, i64, %union.anon.2, i32, %union.anon.3, i64, ptr, ptr, ptr, %union.anon.4 }
%union.SourceSpan = type { i64 }
%union.anon.2 = type { ptr }
%union.anon.3 = type { i16 }
%union.anon.4 = type { %struct.FuncDecl }
%struct.FuncDecl = type { i32, [4 x i8], %struct.Signature_, i32, i32, %union.anon.11 }
%struct.Signature_ = type <{ %struct.CalleeAttributes, i16, i8, i32, i32, [4 x i8], ptr }>
%struct.CalleeAttributes = type { i8 }
%union.anon.11 = type { %struct.anon.12 }
%struct.anon.12 = type { i16, %union.anon.13 }
%union.anon.13 = type { ptr }
%struct.VarDecl_ = type { i32, i32, %union.anon.17, %union.anon.18 }
%union.anon.17 = type { ptr }
%union.anon.18 = type { %struct.anon.19 }
%struct.anon.19 = type { ptr, %union.SourceSpan }
%struct.Type_ = type { i32, ptr, ptr, ptr, %union.anon.85, ptr, ptr, %union.anon.87 }
%union.anon.85 = type { ptr }
%union.anon.87 = type { %struct.TypeFunction }
%struct.TypeFunction = type { ptr, ptr, ptr }
%struct.anon.5 = type { ptr, ptr, %union.anon.6 }
%union.anon.6 = type { %struct.BitStructDecl }
%struct.BitStructDecl = type { ptr, ptr, i8 }
%struct.TypeInfo_ = type { i16, ptr, %union.SourceSpan, %union.anon.56 }
%union.anon.56 = type { %struct.anon.57 }
%struct.anon.57 = type { ptr, ptr }

@.str = private unnamed_addr constant [36 x i8] c"FATAL ERROR %s -> in %s @ in %s:%d \00", align 1
@.str.1 = private unnamed_addr constant [22 x i8] c"Should be unreachable\00", align 1
@.str.2 = private unnamed_addr constant [107 x i8] c"generated/home/dtcxzyw/WorkSpace/Projects/compilers/llvm-opt-benchmark/bench/c3c/c3c/src/compiler/number.c\00", align 1
@__func__.expr_const_float_fits_type = private unnamed_addr constant [27 x i8] c"expr_const_float_fits_type\00", align 1
@__func__.expr_const_will_overflow = private unnamed_addr constant [25 x i8] c"expr_const_will_overflow\00", align 1
@__func__.type_flatten = private unnamed_addr constant [13 x i8] c"type_flatten\00", align 1
@.str.13 = private unnamed_addr constant [118 x i8] c"generated/home/dtcxzyw/WorkSpace/Projects/compilers/llvm-opt-benchmark/bench/c3c/c3c/src/compiler/compiler_internal.h\00", align 1

; Function Attrs: nounwind uwtable
define internal ptr @type_flatten(ptr noundef %0) #0 {
  %2 = alloca ptr, align 8
  store ptr %0, ptr %2, align 8
  br label %3

3:                                                ; preds = %28, %1
  %4 = load ptr, ptr %2, align 8
  %5 = getelementptr inbounds %struct.Type_, ptr %4, i32 0, i32 1
  %6 = load ptr, ptr %5, align 8
  store ptr %6, ptr %2, align 8
  %7 = load ptr, ptr %2, align 8
  %8 = getelementptr inbounds %struct.Type_, ptr %7, i32 0, i32 0
  %9 = load i32, ptr %8, align 8
  switch i32 %9, label %26 [
    i32 32, label %10
    i32 40, label %19
    i32 31, label %23
  ]

10:                                               ; preds = %3
  %11 = load ptr, ptr %2, align 8
  %12 = getelementptr inbounds %struct.Type_, ptr %11, i32 0, i32 7
  %13 = load ptr, ptr %12, align 8
  %14 = getelementptr inbounds %struct.Decl_, ptr %13, i32 0, i32 11
  %15 = getelementptr inbounds %struct.anon.5, ptr %14, i32 0, i32 2
  %16 = load ptr, ptr %15, align 8
  %17 = getelementptr inbounds %struct.TypeInfo_, ptr %16, i32 0, i32 1
  %18 = load ptr, ptr %17, align 8
  store ptr %18, ptr %2, align 8
  br label %28

19:                                               ; preds = %3
  %20 = load ptr, ptr %2, align 8
  %21 = getelementptr inbounds %struct.Type_, ptr %20, i32 0, i32 7
  %22 = load ptr, ptr %21, align 8
  store ptr %22, ptr %2, align 8
  br label %28

23:                                               ; preds = %3
  br label %24

24:                                               ; preds = %23
  call void (ptr, ...) @error_exit(ptr noundef @.str, ptr noundef @.str.1, ptr noundef @__func__.type_flatten, ptr noundef @.str.13, i32 noundef 2984) #5
  unreachable

25:                                               ; No predecessors!
  br label %26

26:                                               ; preds = %25, %3
  %27 = load ptr, ptr %2, align 8
  ret ptr %27

28:                                               ; preds = %19, %10
  br label %3
}

; Function Attrs: nounwind uwtable
define dso_local zeroext i1 @expr_const_float_fits_type(ptr noundef %0, i32 noundef %1) #0 {
  %3 = alloca i1, align 1
  %4 = alloca ptr, align 8
  %5 = alloca i32, align 4
  %6 = alloca double, align 8
  %7 = alloca double, align 8
  store ptr %0, ptr %4, align 8
  store i32 %1, ptr %5, align 4
  %8 = load i32, ptr %5, align 4
  switch i32 %8, label %14 [
    i32 13, label %9
    i32 15, label %10
    i32 16, label %11
    i32 17, label %12
    i32 2, label %13
  ]

9:                                                ; preds = %2
  store double 6.550400e+04, ptr %6, align 8
  store double 6.550400e+04, ptr %7, align 8
  br label %17

10:                                               ; preds = %2
  store double 0x47EFFFFFE0000000, ptr %6, align 8
  store double 0x47EFFFFFE0000000, ptr %7, align 8
  br label %17

11:                                               ; preds = %2
  store double 0x7FEFFFFFFFFFFFFF, ptr %6, align 8
  store double 0x7FEFFFFFFFFFFFFF, ptr %7, align 8
  br label %17

12:                                               ; preds = %2
  store i1 true, ptr %3, align 1
  br label %34

13:                                               ; preds = %2
  store i1 true, ptr %3, align 1
  br label %34

14:                                               ; preds = %2
  br label %15

15:                                               ; preds = %14
  call void (ptr, ...) @error_exit(ptr noundef @.str, ptr noundef @.str.1, ptr noundef @__func__.expr_const_float_fits_type, ptr noundef @.str.2, i32 noundef 173) #5
  unreachable

16:                                               ; No predecessors!
  br label %17

17:                                               ; preds = %16, %11, %10, %9
  %18 = load ptr, ptr %4, align 8
  %19 = getelementptr inbounds %struct.ExprConst, ptr %18, i32 0, i32 1
  %20 = getelementptr inbounds %struct.Float, ptr %19, i32 0, i32 0
  %21 = load double, ptr %20, align 8
  %22 = load double, ptr %7, align 8
  %23 = fneg double %22
  %24 = fcmp oge double %21, %23
  br i1 %24, label %25, label %32

25:                                               ; preds = %17
  %26 = load ptr, ptr %4, align 8
  %27 = getelementptr inbounds %struct.ExprConst, ptr %26, i32 0, i32 1
  %28 = getelementptr inbounds %struct.Float, ptr %27, i32 0, i32 0
  %29 = load double, ptr %28, align 8
  %30 = load double, ptr %6, align 8
  %31 = fcmp ole double %29, %30
  br label %32

32:                                               ; preds = %25, %17
  %33 = phi i1 [ false, %17 ], [ %31, %25 ]
  store i1 %33, ptr %3, align 1
  br label %34

34:                                               ; preds = %32, %13, %12
  %35 = load i1, ptr %3, align 1
  ret i1 %35
}

; Function Attrs: nounwind uwtable
define dso_local zeroext i1 @expr_const_will_overflow(ptr noundef %0, i32 noundef %1) #0 {
  %3 = alloca i1, align 1
  %4 = alloca ptr, align 8
  %5 = alloca i32, align 4
  %6 = alloca %struct.Int, align 8
  store ptr %0, ptr %4, align 8
  store i32 %1, ptr %5, align 4
  %7 = load ptr, ptr %4, align 8
  %8 = load i16, ptr %7, align 8
  %9 = and i16 %8, 255
  %10 = zext i16 %9 to i32
  switch i32 %10, label %49 [
    i32 0, label %11
    i32 1, label %16
    i32 2, label %22
    i32 3, label %23
    i32 4, label %46
    i32 5, label %46
    i32 6, label %46
    i32 7, label %46
    i32 8, label %46
    i32 9, label %46
    i32 10, label %46
    i32 11, label %46
  ]

11:                                               ; preds = %2
  %12 = load ptr, ptr %4, align 8
  %13 = load i32, ptr %5, align 4
  %14 = call zeroext i1 @expr_const_float_fits_type(ptr noundef %12, i32 noundef %13)
  %15 = xor i1 %14, true
  store i1 %15, ptr %3, align 1
  br label %51

16:                                               ; preds = %2
  %17 = load ptr, ptr %4, align 8
  %18 = getelementptr inbounds %struct.ExprConst, ptr %17, i32 0, i32 1
  %19 = load i32, ptr %5, align 4
  %20 = call zeroext i1 @int_fits(ptr noundef byval(%struct.Int) align 8 %18, i32 noundef %19)
  %21 = xor i1 %20, true
  store i1 %21, ptr %3, align 1
  br label %51

22:                                               ; preds = %2
  store i1 false, ptr %3, align 1
  br label %51

23:                                               ; preds = %2
  %24 = getelementptr inbounds %struct.Int, ptr %6, i32 0, i32 0
  %25 = getelementptr inbounds %struct.Int128_, ptr %24, i32 0, i32 0
  store i64 0, ptr %25, align 8
  %26 = getelementptr inbounds %struct.Int128_, ptr %24, i32 0, i32 1
  %27 = load ptr, ptr %4, align 8
  %28 = getelementptr inbounds %struct.ExprConst, ptr %27, i32 0, i32 1
  %29 = load ptr, ptr %28, align 8
  %30 = getelementptr inbounds %struct.Decl_, ptr %29, i32 0, i32 11
  %31 = getelementptr inbounds %struct.VarDecl_, ptr %30, i32 0, i32 3
  %32 = load i32, ptr %31, align 8
  %33 = sext i32 %32 to i64
  store i64 %33, ptr %26, align 8
  %34 = getelementptr inbounds %struct.Int, ptr %6, i32 0, i32 1
  %35 = load ptr, ptr %4, align 8
  %36 = getelementptr inbounds %struct.ExprConst, ptr %35, i32 0, i32 1
  %37 = load ptr, ptr %36, align 8
  %38 = getelementptr inbounds %struct.Decl_, ptr %37, i32 0, i32 10
  %39 = load ptr, ptr %38, align 8
  %40 = call ptr @type_flatten(ptr noundef %39)
  %41 = getelementptr inbounds %struct.Type_, ptr %40, i32 0, i32 0
  %42 = load i32, ptr %41, align 8
  store i32 %42, ptr %34, align 8
  %43 = load i32, ptr %5, align 4
  %44 = call zeroext i1 @int_fits(ptr noundef byval(%struct.Int) align 8 %6, i32 noundef %43)
  %45 = xor i1 %44, true
  store i1 %45, ptr %3, align 1
  br label %51

46:                                               ; preds = %2, %2, %2, %2, %2, %2, %2, %2
  br label %47

47:                                               ; preds = %46
  call void (ptr, ...) @error_exit(ptr noundef @.str, ptr noundef @.str.1, ptr noundef @__func__.expr_const_will_overflow, ptr noundef @.str.2, i32 noundef 202) #5
  unreachable

48:                                               ; No predecessors!
  br label %49

49:                                               ; preds = %48, %2
  br label %50

50:                                               ; preds = %49
  call void (ptr, ...) @error_exit(ptr noundef @.str, ptr noundef @.str.1, ptr noundef @__func__.expr_const_will_overflow, ptr noundef @.str.2, i32 noundef 204) #5
  unreachable

51:                                               ; preds = %23, %22, %16, %11
  %52 = load i1, ptr %3, align 1
  ret i1 %52
}