; Function Attrs: nounwind uwtable
define dso_local zeroext i1 @expr_const_will_overflow(ptr noundef %0, i32 noundef %1) local_unnamed_addr #0 {
  %3 = alloca %struct.Int, align 8
  %4 = load i16, ptr %0, align 8
  %trunc = trunc i16 %4 to i8
  switch i8 %trunc, label %44 [
    i8 0, label %5
    i8 1, label %15
    i8 2, label %expr_const_float_fits_type.exit
    i8 3, label %19
    i8 4, label %43
    i8 5, label %43
    i8 6, label %43
    i8 7, label %43
    i8 8, label %43
    i8 9, label %43
    i8 10, label %43
    i8 11, label %43
  ]

5:                                                ; preds = %2
  switch i32 %1, label %8 [
    i32 13, label %9
    i32 15, label %6
    i32 16, label %7
    i32 17, label %expr_const_float_fits_type.exit
    i32 2, label %expr_const_float_fits_type.exit
  ]

6:                                                ; preds = %5
  br label %9

7:                                                ; preds = %5
  br label %9

8:                                                ; preds = %5
  tail call void (ptr, ...) @error_exit(ptr noundef nonnull @.str, ptr noundef nonnull @.str.1, ptr noundef nonnull @__func__.expr_const_float_fits_type, ptr noundef nonnull @.str.2, i32 noundef 173) #5
  unreachable

9:                                                ; preds = %7, %6, %5
  %.0.i = phi double [ 0x7FEFFFFFFFFFFFFF, %7 ], [ 0x47EFFFFFE0000000, %6 ], [ 6.550400e+04, %5 ]
  %10 = getelementptr inbounds i8, ptr %0, i64 8
  %11 = load double, ptr %10, align 8
  %12 = fneg double %.0.i
  %13 = fcmp ult double %11, %12
  %14 = fcmp ugt double %11, %.0.i
  %.not10 = or i1 %13, %14
  br label %expr_const_float_fits_type.exit

15:                                               ; preds = %2
  %16 = getelementptr inbounds i8, ptr %0, i64 8
  %17 = tail call zeroext i1 @int_fits(ptr noundef nonnull byval(%struct.Int) align 8 %16, i32 noundef %1) #6
  %18 = xor i1 %17, true
  br label %expr_const_float_fits_type.exit

19:                                               ; preds = %2
  store i64 0, ptr %3, align 8
  %20 = getelementptr inbounds i8, ptr %3, i64 8
  %21 = getelementptr inbounds i8, ptr %0, i64 8
  %22 = load ptr, ptr %21, align 8
  %23 = getelementptr inbounds i8, ptr %22, i64 96
  %24 = load i32, ptr %23, align 8
  %25 = sext i32 %24 to i64
  store i64 %25, ptr %20, align 8
  %26 = getelementptr inbounds i8, ptr %3, i64 16
  %27 = getelementptr inbounds i8, ptr %22, i64 72
  br label %28

28:                                               ; preds = %.backedge, %19
  %.0.i8.in = phi ptr [ %27, %19 ], [ %.0.i8.in.be, %.backedge ]
  %.0.i8 = load ptr, ptr %.0.i8.in, align 8
  %29 = getelementptr inbounds i8, ptr %.0.i8, i64 8
  %30 = load ptr, ptr %29, align 8
  %31 = load i32, ptr %30, align 8
  switch i32 %31, label %type_flatten.exit [
    i32 32, label %32
    i32 40, label %38
    i32 31, label %40
  ]

32:                                               ; preds = %28
  %33 = getelementptr inbounds i8, ptr %30, i64 56
  %34 = load ptr, ptr %33, align 8
  %35 = getelementptr inbounds i8, ptr %34, i64 96
  %36 = load ptr, ptr %35, align 8
  %37 = getelementptr inbounds i8, ptr %36, i64 8
  br label %.backedge

38:                                               ; preds = %28
  %39 = getelementptr inbounds i8, ptr %30, i64 56
  br label %.backedge

.backedge:                                        ; preds = %38, %32
  %.0.i8.in.be = phi ptr [ %39, %38 ], [ %37, %32 ]
  br label %28

40:                                               ; preds = %28
  tail call void (ptr, ...) @error_exit(ptr noundef nonnull @.str, ptr noundef nonnull @.str.1, ptr noundef nonnull @__func__.type_flatten, ptr noundef nonnull @.str.13, i32 noundef 2984) #5
  unreachable

type_flatten.exit:                                ; preds = %28
  store i32 %31, ptr %26, align 8
  %41 = tail call zeroext i1 @int_fits(ptr noundef nonnull byval(%struct.Int) align 8 %3, i32 noundef %1) #6
  %42 = xor i1 %41, true
  br label %expr_const_float_fits_type.exit

43:                                               ; preds = %2, %2, %2, %2, %2, %2, %2, %2
  tail call void (ptr, ...) @error_exit(ptr noundef nonnull @.str, ptr noundef nonnull @.str.1, ptr noundef nonnull @__func__.expr_const_will_overflow, ptr noundef nonnull @.str.2, i32 noundef 202) #5
  unreachable

44:                                               ; preds = %2
  tail call void (ptr, ...) @error_exit(ptr noundef nonnull @.str, ptr noundef nonnull @.str.1, ptr noundef nonnull @__func__.expr_const_will_overflow, ptr noundef nonnull @.str.2, i32 noundef 204) #5
  unreachable

expr_const_float_fits_type.exit:                  ; preds = %9, %5, %5, %2, %type_flatten.exit, %15
  %.0 = phi i1 [ %42, %type_flatten.exit ], [ %18, %15 ], [ false, %2 ], [ %.not10, %9 ], [ false, %5 ], [ false, %5 ]
  ret i1 %.0
}